#include <math.h>
#include <stdio.h>
#include <stdlib.h>
#include <string.h>



int main(int argc, char* argv[])
{
	int k;
	scanf("%d",&k);
	int a[25];
	int i,j,temp=0;
	for(i=0;i<k;i++){
	scanf("%d",&a[i]);
	}
	int max[25];
	for(i=0;i<k;i++){
		max[i]=1;}

	for(i=k-2;i>=0;i--){
		
		for(j=i+1;j<k;j++){
		if(a[i]>=a[j]) temp=max[j]+1;
		if(temp>max[i]) max[i]=temp;
		}

	}
	int nmax=0;
	for(i=0;i<k;i++){
	if(max[i]>nmax) nmax=max[i];}
	printf("%d\n",nmax);

	return 0;
}

